; Function Attrs: mustprogress nofree norecurse nosync nounwind willreturn memory(argmem: read) uwtable
define hidden range(i32 0, 2) i32 @nghttp2_session_is_my_stream_id(ptr noundef readonly captures(none) %0, i32 noundef %1) local_unnamed_addr #2 {
  %3 = icmp eq i32 %1, 0
  br i1 %3, label %9, label %4

4:                                                ; preds = %2
  %5 = and i32 %1, 1
  %6 = getelementptr inbounds nuw i8, ptr %0, i64 2675
  %7 = load i8, ptr %6, align 1, !tbaa !37
  %.not = icmp ne i8 %7, 0
  %8 = zext i1 %.not to i32
  %spec.select = xor i32 %5, %8
  br label %9

9:                                                ; preds = %4, %2
  %.0 = phi i32 [ 0, %2 ], [ %spec.select, %4 ]
  ret i32 %.0
}